target datalayout = "e-m:e-p270:32:32-p271:32:32-p272:64:64-i64:64-i128:128-f80:128-n8:16:32:64-S128"
target triple = "x86_64-pc-linux-gnu"

%struct.CLibrary = type { ptr, ptr }

; Function Attrs: nounwind uwtable
define internal void @clib_unloadlib(ptr noundef %0) #0 {
  %2 = alloca ptr, align 8
  store ptr %0, ptr %2, align 8, !tbaa !9
  %3 = load ptr, ptr %2, align 8, !tbaa !9
  %4 = getelementptr inbounds nuw %struct.CLibrary, ptr %3, i32 0, i32 0
  %5 = load ptr, ptr %4, align 8, !tbaa !57
  %6 = icmp ne ptr %5, null
  br i1 %6, label %7, label %17

7:                                                ; preds = %1
  %8 = load ptr, ptr %2, align 8, !tbaa !9
  %9 = getelementptr inbounds nuw %struct.CLibrary, ptr %8, i32 0, i32 0
  %10 = load ptr, ptr %9, align 8, !tbaa !57
  %11 = icmp ne ptr %10, null
  br i1 %11, label %12, label %17

12:                                               ; preds = %7
  %13 = load ptr, ptr %2, align 8, !tbaa !9
  %14 = getelementptr inbounds nuw %struct.CLibrary, ptr %13, i32 0, i32 0
  %15 = load ptr, ptr %14, align 8, !tbaa !57
  %16 = call i32 @dlclose(ptr noundef %15) #9
  br label %17

17:                                               ; preds = %12, %7, %1
  ret void
}

; Function Attrs: nounwind uwtable
define hidden void @lj_clib_unload(ptr noundef %0) #0 {
  %2 = alloca ptr, align 8
  store ptr %0, ptr %2, align 8, !tbaa !9
  %3 = load ptr, ptr %2, align 8, !tbaa !9
  call void @clib_unloadlib(ptr noundef %3)
  %4 = load ptr, ptr %2, align 8, !tbaa !9
  %5 = getelementptr inbounds nuw %struct.CLibrary, ptr %4, i32 0, i32 0
  store ptr null, ptr %5, align 8, !tbaa !57
  ret void
}