; Function Attrs: nounwind uwtable
define hidden void @lj_clib_unload(ptr noundef captures(none) %0) local_unnamed_addr #0 {
  %.val = load ptr, ptr %0, align 8, !tbaa !46
  %.not.i = icmp eq ptr %.val, null
  br i1 %.not.i, label %clib_unloadlib.exit, label %2

2:                                                ; preds = %1
  %3 = tail call i32 @dlclose(ptr noundef nonnull %.val) #9
  br label %clib_unloadlib.exit

clib_unloadlib.exit:                              ; preds = %1, %2
  store ptr null, ptr %0, align 8, !tbaa !46
  ret void
}